target datalayout = "e-m:e-p270:32:32-p271:32:32-p272:64:64-i64:64-i128:128-f80:128-n8:16:32:64-S128"
target triple = "x86_64-pc-linux-gnu"

%struct.Camera = type { %struct.b2Vec2, float, i32, i32 }
%struct.b2Vec2 = type { float, float }
%struct.ImVec2 = type { float, float }
%struct.ImGuiIO = type { i32, i32, %struct.ImVec2, float, float, ptr, ptr, ptr, ptr, float, i8, ptr, %struct.ImVec2, i8, i8, i8, i8, i8, i8, i8, i8, i8, i8, float, float, float, float, float, float, i8, i8, i8, i8, i8, i8, i8, i8, i8, i8, ptr, ptr, ptr, ptr, ptr, i8, i8, i8, i8, i8, i8, i8, float, i32, i32, i32, i32, %struct.ImVec2, ptr, %struct.ImVec2, [5 x i8], float, float, i32, i8, i8, i8, i8, i32, [154 x %struct.ImGuiKeyData], i8, %struct.ImVec2, [5 x %struct.ImVec2], [5 x double], [5 x i8], [5 x i8], [5 x i16], [5 x i16], [5 x i8], [5 x i8], [5 x i8], i8, i8, [5 x float], [5 x float], [5 x float], float, i8, i8, i8, i8, i16, %struct.ImVector }
%struct.ImGuiKeyData = type { i8, float, float, float }
%struct.ImVector = type { i32, i32, ptr }

@g_mainWindow = dso_local global ptr null, align 8
@g_camera = external global %struct.Camera, align 4
@_ZL13s_windowScale = internal global float 1.000000e+00, align 4
@_ZL8s_sample = internal global ptr null, align 8
@_ZL14s_clickPointWS = internal global %struct.b2Vec2 zeroinitializer, align 4
@_ZL16s_rightMouseDown = internal global i8 0, align 1

; Function Attrs: mustprogress uwtable
define internal void @_ZL19MouseButtonCallbackP10GLFWwindowiii(ptr noundef %0, i32 noundef %1, i32 noundef %2, i32 noundef %3) #10 {
  %5 = alloca ptr, align 8
  %6 = alloca i32, align 4
  %7 = alloca i32, align 4
  %8 = alloca i32, align 4
  %9 = alloca double, align 8
  %10 = alloca double, align 8
  %11 = alloca %struct.b2Vec2, align 4
  %12 = alloca %struct.b2Vec2, align 4
  %13 = alloca %struct.b2Vec2, align 4
  %14 = alloca %struct.b2Vec2, align 4
  %15 = alloca %struct.b2Vec2, align 4
  %16 = alloca %struct.b2Vec2, align 4
  %17 = alloca %struct.b2Vec2, align 4
  store ptr %0, ptr %5, align 8, !tbaa !38
  store i32 %1, ptr %6, align 4, !tbaa !4
  store i32 %2, ptr %7, align 4, !tbaa !4
  store i32 %3, ptr %8, align 4, !tbaa !4
  %18 = load ptr, ptr %5, align 8, !tbaa !38
  %19 = load i32, ptr %6, align 4, !tbaa !4
  %20 = load i32, ptr %7, align 4, !tbaa !4
  %21 = load i32, ptr %8, align 4, !tbaa !4
  call void @_Z34ImGui_ImplGlfw_MouseButtonCallbackP10GLFWwindowiii(ptr noundef %18, i32 noundef %19, i32 noundef %20, i32 noundef %21)
  %22 = call noundef nonnull align 8 dereferenceable(2944) ptr @_ZN5ImGui5GetIOEv()
  %23 = getelementptr inbounds nuw %struct.ImGuiIO, ptr %22, i32 0, i32 44
  %24 = load i8, ptr %23, align 8, !tbaa !105, !range !35, !noundef !36
  %25 = trunc i8 %24 to i1
  br i1 %25, label %26, label %27

26:                                               ; preds = %4
  br label %81

27:                                               ; preds = %4
  call void @llvm.lifetime.start.p0(i64 8, ptr %9) #14
  call void @llvm.lifetime.start.p0(i64 8, ptr %10) #14
  %28 = load ptr, ptr @g_mainWindow, align 8, !tbaa !38
  call void @glfwGetCursorPos(ptr noundef %28, ptr noundef %9, ptr noundef %10)
  call void @llvm.lifetime.start.p0(i64 8, ptr %11) #14
  %29 = getelementptr inbounds nuw %struct.b2Vec2, ptr %11, i32 0, i32 0
  %30 = load double, ptr %9, align 8, !tbaa !44
  %31 = fptrunc double %30 to float
  %32 = load float, ptr @_ZL13s_windowScale, align 4, !tbaa !37
  %33 = fdiv float %31, %32
  store float %33, ptr %29, align 4, !tbaa !106
  %34 = getelementptr inbounds nuw %struct.b2Vec2, ptr %11, i32 0, i32 1
  %35 = load double, ptr %10, align 8, !tbaa !44
  %36 = fptrunc double %35 to float
  %37 = load float, ptr @_ZL13s_windowScale, align 4, !tbaa !37
  %38 = fdiv float %36, %37
  store float %38, ptr %34, align 4, !tbaa !107
  %39 = load i32, ptr %6, align 4, !tbaa !4
  %40 = icmp eq i32 %39, 0
  br i1 %40, label %41, label %65

41:                                               ; preds = %27
  call void @llvm.lifetime.start.p0(i64 8, ptr %12) #14
  call void @llvm.memcpy.p0.p0.i64(ptr align 4 %13, ptr align 4 %11, i64 8, i1 false), !tbaa.struct !102
  %42 = load <2 x float>, ptr %13, align 4
  %43 = call <2 x float> @_ZN6Camera20ConvertScreenToWorldE6b2Vec2(ptr noundef nonnull align 4 dereferenceable(20) @g_camera, <2 x float> %42)
  store <2 x float> %43, ptr %12, align 4
  %44 = load i32, ptr %7, align 4, !tbaa !4
  %45 = icmp eq i32 %44, 1
  br i1 %45, label %46, label %54

46:                                               ; preds = %41
  %47 = load ptr, ptr @_ZL8s_sample, align 8, !tbaa !62
  call void @llvm.memcpy.p0.p0.i64(ptr align 4 %14, ptr align 4 %12, i64 8, i1 false), !tbaa.struct !102
  %48 = load i32, ptr %6, align 4, !tbaa !4
  %49 = load i32, ptr %8, align 4, !tbaa !4
  %50 = load <2 x float>, ptr %14, align 4
  %51 = load ptr, ptr %47, align 8, !tbaa !82
  %52 = getelementptr inbounds ptr, ptr %51, i64 5
  %53 = load ptr, ptr %52, align 8
  call void %53(ptr noundef nonnull align 8 dereferenceable(248) %47, <2 x float> %50, i32 noundef %48, i32 noundef %49)
  br label %54

54:                                               ; preds = %46, %41
  %55 = load i32, ptr %7, align 4, !tbaa !4
  %56 = icmp eq i32 %55, 0
  br i1 %56, label %57, label %64

57:                                               ; preds = %54
  %58 = load ptr, ptr @_ZL8s_sample, align 8, !tbaa !62
  call void @llvm.memcpy.p0.p0.i64(ptr align 4 %15, ptr align 4 %12, i64 8, i1 false), !tbaa.struct !102
  %59 = load i32, ptr %6, align 4, !tbaa !4
  %60 = load <2 x float>, ptr %15, align 4
  %61 = load ptr, ptr %58, align 8, !tbaa !82
  %62 = getelementptr inbounds ptr, ptr %61, i64 6
  %63 = load ptr, ptr %62, align 8
  call void %63(ptr noundef nonnull align 8 dereferenceable(248) %58, <2 x float> %60, i32 noundef %59)
  br label %64

64:                                               ; preds = %57, %54
  call void @llvm.lifetime.end.p0(i64 8, ptr %12) #14
  br label %80

65:                                               ; preds = %27
  %66 = load i32, ptr %6, align 4, !tbaa !4
  %67 = icmp eq i32 %66, 1
  br i1 %67, label %68, label %79

68:                                               ; preds = %65
  %69 = load i32, ptr %7, align 4, !tbaa !4
  %70 = icmp eq i32 %69, 1
  br i1 %70, label %71, label %74

71:                                               ; preds = %68
  call void @llvm.lifetime.start.p0(i64 8, ptr %16) #14
  call void @llvm.memcpy.p0.p0.i64(ptr align 4 %17, ptr align 4 %11, i64 8, i1 false), !tbaa.struct !102
  %72 = load <2 x float>, ptr %17, align 4
  %73 = call <2 x float> @_ZN6Camera20ConvertScreenToWorldE6b2Vec2(ptr noundef nonnull align 4 dereferenceable(20) @g_camera, <2 x float> %72)
  store <2 x float> %73, ptr %16, align 4
  call void @llvm.memcpy.p0.p0.i64(ptr align 4 @_ZL14s_clickPointWS, ptr align 4 %16, i64 8, i1 false), !tbaa.struct !102
  call void @llvm.lifetime.end.p0(i64 8, ptr %16) #14
  store i8 1, ptr @_ZL16s_rightMouseDown, align 1, !tbaa !34
  br label %74

74:                                               ; preds = %71, %68
  %75 = load i32, ptr %7, align 4, !tbaa !4
  %76 = icmp eq i32 %75, 0
  br i1 %76, label %77, label %78

77:                                               ; preds = %74
  store i8 0, ptr @_ZL16s_rightMouseDown, align 1, !tbaa !34
  br label %78

78:                                               ; preds = %77, %74
  br label %79

79:                                               ; preds = %78, %65
  br label %80

80:                                               ; preds = %79, %64
  call void @llvm.lifetime.end.p0(i64 8, ptr %11) #14
  call void @llvm.lifetime.end.p0(i64 8, ptr %10) #14
  call void @llvm.lifetime.end.p0(i64 8, ptr %9) #14
  br label %81

81:                                               ; preds = %80, %26
  ret void
}