; Function Attrs: mustprogress uwtable
define internal void @_ZL19MouseButtonCallbackP10GLFWwindowiii(ptr noundef %0, i32 noundef %1, i32 noundef %2, i32 noundef %3) #12 {
  %5 = alloca double, align 8
  %6 = alloca double, align 8
  tail call void @_Z34ImGui_ImplGlfw_MouseButtonCallbackP10GLFWwindowiii(ptr noundef %0, i32 noundef %1, i32 noundef %2, i32 noundef %3)
  %7 = tail call noundef nonnull align 8 dereferenceable(2944) ptr @_ZN5ImGui5GetIOEv()
  %8 = getelementptr inbounds nuw i8, ptr %7, i64 168
  %9 = load i8, ptr %8, align 8, !tbaa !100, !range !71, !noundef !72
  %10 = trunc nuw i8 %9 to i1
  br i1 %10, label %37, label %11

11:                                               ; preds = %4
  call void @llvm.lifetime.start.p0(i64 8, ptr nonnull %5) #21
  call void @llvm.lifetime.start.p0(i64 8, ptr nonnull %6) #21
  %12 = load ptr, ptr @g_mainWindow, align 8, !tbaa !22
  call void @glfwGetCursorPos(ptr noundef %12, ptr noundef nonnull %5, ptr noundef nonnull %6)
  %13 = load double, ptr %5, align 8, !tbaa !58
  %14 = fptrunc double %13 to float
  %15 = load float, ptr @_ZL13s_windowScale, align 4, !tbaa !21
  %16 = fdiv float %14, %15
  %.sroa.07.0.vec.insert = insertelement <2 x float> poison, float %16, i64 0
  %17 = load double, ptr %6, align 8, !tbaa !58
  %18 = fptrunc double %17 to float
  %19 = fdiv float %18, %15
  %.sroa.07.4.vec.insert = insertelement <2 x float> %.sroa.07.0.vec.insert, float %19, i64 1
  switch i32 %1, label %36 [
    i32 0, label %20
    i32 1, label %32
  ]

20:                                               ; preds = %11
  %21 = call <2 x float> @_ZN6Camera20ConvertScreenToWorldE6b2Vec2(ptr noundef nonnull align 4 dereferenceable(20) @g_camera, <2 x float> %.sroa.07.4.vec.insert)
  switch i32 %2, label %36 [
    i32 1, label %22
    i32 0, label %27
  ]

22:                                               ; preds = %20
  %23 = load ptr, ptr @_ZL8s_sample, align 8, !tbaa !66
  %24 = load ptr, ptr %23, align 8, !tbaa !75
  %25 = getelementptr inbounds nuw i8, ptr %24, i64 40
  %26 = load ptr, ptr %25, align 8
  call void %26(ptr noundef nonnull align 8 dereferenceable(248) %23, <2 x float> %21, i32 noundef 0, i32 noundef %3)
  br label %36

27:                                               ; preds = %20
  %28 = load ptr, ptr @_ZL8s_sample, align 8, !tbaa !66
  %29 = load ptr, ptr %28, align 8, !tbaa !75
  %30 = getelementptr inbounds nuw i8, ptr %29, i64 48
  %31 = load ptr, ptr %30, align 8
  call void %31(ptr noundef nonnull align 8 dereferenceable(248) %28, <2 x float> %21, i32 noundef 0)
  br label %36

32:                                               ; preds = %11
  switch i32 %2, label %36 [
    i32 1, label %33
    i32 0, label %35
  ]

33:                                               ; preds = %32
  %34 = call <2 x float> @_ZN6Camera20ConvertScreenToWorldE6b2Vec2(ptr noundef nonnull align 4 dereferenceable(20) @g_camera, <2 x float> %.sroa.07.4.vec.insert)
  store <2 x float> %34, ptr @_ZL14s_clickPointWS.0, align 8
  store i1 true, ptr @_ZL16s_rightMouseDown, align 1
  br label %36

35:                                               ; preds = %32
  store i1 false, ptr @_ZL16s_rightMouseDown, align 1
  br label %36

36:                                               ; preds = %33, %22, %32, %11, %27, %20, %35
  call void @llvm.lifetime.end.p0(i64 8, ptr nonnull %6) #21
  call void @llvm.lifetime.end.p0(i64 8, ptr nonnull %5) #21
  br label %37

37:                                               ; preds = %4, %36
  ret void
}